target datalayout = "e-m:e-p270:32:32-p271:32:32-p272:64:64-i64:64-i128:128-f80:128-n8:16:32:64-S128"
target triple = "x86_64-pc-linux-gnu"

%struct.DES_ks = type { [16 x %union.anon] }
%union.anon = type { [2 x i32] }

@.str.24 = private unnamed_addr constant [26 x i8] c"../openssl/test/destest.c\00", align 1
@cfb_key = internal global [8 x i8] c"\01#Eg\89\AB\CD\EF", align 1
@cfb_tmp = internal global [8 x i8] zeroinitializer, align 1
@cfb_iv = internal global [8 x i8] c"\124Vx\90\AB\CD\EF", align 1
@plain = internal global [24 x i8] c"Now is the time for all ", align 16
@cfb_buf1 = internal global [40 x i8] zeroinitializer, align 16
@.str.47 = private unnamed_addr constant [9 x i8] c"cfb_buf1\00", align 1
@cfb_buf2 = internal global [40 x i8] zeroinitializer, align 16
@.str.48 = private unnamed_addr constant [6 x i8] c"plain\00", align 1
@.str.49 = private unnamed_addr constant [9 x i8] c"cfb_buf2\00", align 1
@cfb_cipher64 = internal global [24 x i8] c"\F3\09bI\C7\F4nQ\A6\9E\83\9B\1A\92\F7\84\03Fq3\89\8E\A6\22", align 16
@.str.50 = private unnamed_addr constant [13 x i8] c"cfb_cipher64\00", align 1

; Function Attrs: nounwind uwtable
define internal i32 @test_des_ede_cfb64() #0 {
  %1 = alloca i32, align 4
  %2 = alloca %struct.DES_ks, align 4
  %3 = alloca i32, align 4
  %4 = alloca i32, align 4
  call void @llvm.lifetime.start.p0(i64 128, ptr %2) #6
  call void @llvm.lifetime.start.p0(i64 4, ptr %3) #6
  %5 = call i32 @DES_set_key_checked(ptr noundef @cfb_key, ptr noundef %2)
  call void @llvm.memcpy.p0.p0.i64(ptr align 1 @cfb_tmp, ptr align 1 @cfb_iv, i64 8, i1 false)
  store i32 0, ptr %3, align 4, !tbaa !4
  call void @DES_ede3_cfb64_encrypt(ptr noundef @plain, ptr noundef @cfb_buf1, i64 noundef 12, ptr noundef %2, ptr noundef %2, ptr noundef %2, ptr noundef @cfb_tmp, ptr noundef %3, i32 noundef 1)
  call void @DES_ede3_cfb64_encrypt(ptr noundef getelementptr inbounds ([24 x i8], ptr @plain, i64 0, i64 12), ptr noundef getelementptr inbounds ([40 x i8], ptr @cfb_buf1, i64 0, i64 12), i64 noundef 12, ptr noundef %2, ptr noundef %2, ptr noundef %2, ptr noundef @cfb_tmp, ptr noundef %3, i32 noundef 1)
  %6 = call i32 @test_mem_eq(ptr noundef @.str.24, i32 noundef 604, ptr noundef @.str.50, ptr noundef @.str.47, ptr noundef @cfb_cipher64, i64 noundef 24, ptr noundef @cfb_buf1, i64 noundef 24)
  %7 = icmp ne i32 %6, 0
  br i1 %7, label %9, label %8

8:                                                ; preds = %0
  store i32 0, ptr %1, align 4
  store i32 1, ptr %4, align 4
  br label %11

9:                                                ; preds = %0
  call void @llvm.memcpy.p0.p0.i64(ptr align 1 @cfb_tmp, ptr align 1 @cfb_iv, i64 8, i1 false)
  store i32 0, ptr %3, align 4, !tbaa !4
  call void @DES_ede3_cfb64_encrypt(ptr noundef @cfb_buf1, ptr noundef @cfb_buf2, i64 noundef 17, ptr noundef %2, ptr noundef %2, ptr noundef %2, ptr noundef @cfb_tmp, ptr noundef %3, i32 noundef 0)
  call void @DES_ede3_cfb64_encrypt(ptr noundef getelementptr inbounds ([40 x i8], ptr @cfb_buf1, i64 0, i64 17), ptr noundef getelementptr inbounds ([40 x i8], ptr @cfb_buf2, i64 0, i64 17), i64 noundef 7, ptr noundef %2, ptr noundef %2, ptr noundef %2, ptr noundef @cfb_tmp, ptr noundef %3, i32 noundef 0)
  %10 = call i32 @test_mem_eq(ptr noundef @.str.24, i32 noundef 612, ptr noundef @.str.48, ptr noundef @.str.49, ptr noundef @plain, i64 noundef 24, ptr noundef @cfb_buf2, i64 noundef 24)
  store i32 %10, ptr %1, align 4
  store i32 1, ptr %4, align 4
  br label %11

11:                                               ; preds = %9, %8
  call void @llvm.lifetime.end.p0(i64 4, ptr %3) #6
  call void @llvm.lifetime.end.p0(i64 128, ptr %2) #6
  %12 = load i32, ptr %1, align 4
  ret i32 %12
}