; Function Attrs: nounwind uwtable
define internal i32 @test_des_ede_cfb64() #0 {
  %1 = alloca %struct.DES_ks, align 4
  %2 = alloca i32, align 4
  call void @llvm.lifetime.start.p0(i64 128, ptr nonnull %1) #6
  call void @llvm.lifetime.start.p0(i64 4, ptr nonnull %2) #6
  %3 = call i32 @DES_set_key_checked(ptr noundef nonnull @cfb_key, ptr noundef nonnull %1) #6
  store i64 -1167088091436534766, ptr @cfb_tmp, align 8
  store i32 0, ptr %2, align 4, !tbaa !9
  call void @DES_ede3_cfb64_encrypt(ptr noundef nonnull @plain, ptr noundef nonnull @cfb_buf1, i64 noundef 12, ptr noundef nonnull %1, ptr noundef nonnull %1, ptr noundef nonnull %1, ptr noundef nonnull @cfb_tmp, ptr noundef nonnull %2, i32 noundef 1) #6
  call void @DES_ede3_cfb64_encrypt(ptr noundef nonnull getelementptr inbounds nuw (i8, ptr @plain, i64 12), ptr noundef nonnull getelementptr inbounds nuw (i8, ptr @cfb_buf1, i64 12), i64 noundef 12, ptr noundef nonnull %1, ptr noundef nonnull %1, ptr noundef nonnull %1, ptr noundef nonnull @cfb_tmp, ptr noundef nonnull %2, i32 noundef 1) #6
  %4 = call i32 @test_mem_eq(ptr noundef nonnull @.str.24, i32 noundef 604, ptr noundef nonnull @.str.50, ptr noundef nonnull @.str.47, ptr noundef nonnull @cfb_cipher64, i64 noundef 24, ptr noundef nonnull @cfb_buf1, i64 noundef 24) #6
  %.not = icmp eq i32 %4, 0
  br i1 %.not, label %7, label %5

5:                                                ; preds = %0
  store i64 -1167088091436534766, ptr @cfb_tmp, align 8
  store i32 0, ptr %2, align 4, !tbaa !9
  call void @DES_ede3_cfb64_encrypt(ptr noundef nonnull @cfb_buf1, ptr noundef nonnull @cfb_buf2, i64 noundef 17, ptr noundef nonnull %1, ptr noundef nonnull %1, ptr noundef nonnull %1, ptr noundef nonnull @cfb_tmp, ptr noundef nonnull %2, i32 noundef 0) #6
  call void @DES_ede3_cfb64_encrypt(ptr noundef nonnull getelementptr inbounds nuw (i8, ptr @cfb_buf1, i64 17), ptr noundef nonnull getelementptr inbounds nuw (i8, ptr @cfb_buf2, i64 17), i64 noundef 7, ptr noundef nonnull %1, ptr noundef nonnull %1, ptr noundef nonnull %1, ptr noundef nonnull @cfb_tmp, ptr noundef nonnull %2, i32 noundef 0) #6
  %6 = call i32 @test_mem_eq(ptr noundef nonnull @.str.24, i32 noundef 612, ptr noundef nonnull @.str.48, ptr noundef nonnull @.str.49, ptr noundef nonnull @plain, i64 noundef 24, ptr noundef nonnull @cfb_buf2, i64 noundef 24) #6
  br label %7

7:                                                ; preds = %0, %5
  %.0 = phi i32 [ %6, %5 ], [ 0, %0 ]
  call void @llvm.lifetime.end.p0(i64 4, ptr nonnull %2) #6
  call void @llvm.lifetime.end.p0(i64 128, ptr nonnull %1) #6
  ret i32 %.0
}